target datalayout = "e-m:e-p270:32:32-p271:32:32-p272:64:64-i64:64-i128:128-f80:128-n8:16:32:64-S128"
target triple = "x86_64-pc-linux-gnu"

%struct.suite_info = type { ptr, ptr, i32, i32, i32, i32, i32, i32, i64, i64 }

@suite_aes128gcm = internal constant %struct.suite_info { ptr @.str.7, ptr @.str.6, i32 32, i32 16, i32 12, i32 16, i32 16, i32 1, i64 8388608, i64 4503599627370496 }, align 8
@suite_aes256gcm = internal constant %struct.suite_info { ptr @.str.8, ptr @.str.9, i32 48, i32 32, i32 12, i32 16, i32 32, i32 2, i64 8388608, i64 4503599627370496 }, align 8
@suite_chacha20poly1305 = internal constant %struct.suite_info { ptr @.str.10, ptr @.str.6, i32 32, i32 32, i32 12, i32 16, i32 32, i32 3, i64 -2, i64 68719476736 }, align 8

; Function Attrs: nounwind uwtable
define internal ptr @get_suite(i32 noundef %0) #0 {
  %2 = alloca ptr, align 8
  %3 = alloca i32, align 4
  store i32 %0, ptr %3, align 4, !tbaa !14
  %4 = load i32, ptr %3, align 4, !tbaa !14
  switch i32 %4, label %8 [
    i32 1, label %5
    i32 2, label %6
    i32 3, label %7
  ]

5:                                                ; preds = %1
  store ptr @suite_aes128gcm, ptr %2, align 8
  br label %9

6:                                                ; preds = %1
  store ptr @suite_aes256gcm, ptr %2, align 8
  br label %9

7:                                                ; preds = %1
  store ptr @suite_chacha20poly1305, ptr %2, align 8
  br label %9

8:                                                ; preds = %1
  store ptr null, ptr %2, align 8
  br label %9

9:                                                ; preds = %8, %7, %6, %5
  %10 = load ptr, ptr %2, align 8
  ret ptr %10
}

; Function Attrs: nounwind uwtable
define ptr @ossl_qrl_get_suite_md_name(i32 noundef %0) #0 {
  %2 = alloca i32, align 4
  %3 = alloca ptr, align 8
  store i32 %0, ptr %2, align 4, !tbaa !14
  call void @llvm.lifetime.start.p0(i64 8, ptr %3) #4
  %4 = load i32, ptr %2, align 4, !tbaa !14
  %5 = call ptr @get_suite(i32 noundef %4)
  store ptr %5, ptr %3, align 8, !tbaa !32
  %6 = load ptr, ptr %3, align 8, !tbaa !32
  %7 = icmp ne ptr %6, null
  br i1 %7, label %8, label %12

8:                                                ; preds = %1
  %9 = load ptr, ptr %3, align 8, !tbaa !32
  %10 = getelementptr inbounds nuw %struct.suite_info, ptr %9, i32 0, i32 1
  %11 = load ptr, ptr %10, align 8, !tbaa !36
  br label %13

12:                                               ; preds = %1
  br label %13

13:                                               ; preds = %12, %8
  %14 = phi ptr [ %11, %8 ], [ null, %12 ]
  call void @llvm.lifetime.end.p0(i64 8, ptr %3) #4
  ret ptr %14
}